; Function Attrs: mustprogress uwtable
define dso_local void @_ZN4Json12StyledWriter9pushValueERKNSt7__cxx1112basic_stringIcSt11char_traitsIcESaIcEEE(ptr noundef nonnull align 8 dereferenceable(105) %0, ptr noundef nonnull align 8 dereferenceable(32) %1) local_unnamed_addr #0 align 2 {
  %3 = getelementptr inbounds i8, ptr %0, i64 104
  %4 = load i8, ptr %3, align 8
  %5 = and i8 %4, 1
  %.not = icmp eq i8 %5, 0
  br i1 %.not, label %16, label %6

6:                                                ; preds = %2
  %7 = getelementptr inbounds i8, ptr %0, i64 16
  %8 = load ptr, ptr %7, align 8
  %9 = getelementptr inbounds i8, ptr %0, i64 24
  %10 = load ptr, ptr %9, align 8
  %.not.i = icmp eq ptr %8, %10
  br i1 %.not.i, label %14, label %11

11:                                               ; preds = %6
  tail call void @_ZNSt7__cxx1112basic_stringIcSt11char_traitsIcESaIcEEC1ERKS4_(ptr noundef nonnull align 8 dereferenceable(32) %8, ptr noundef nonnull align 8 dereferenceable(32) %1)
  %12 = load ptr, ptr %7, align 8
  %13 = getelementptr inbounds i8, ptr %12, i64 32
  store ptr %13, ptr %7, align 8
  br label %_ZNSt6vectorINSt7__cxx1112basic_stringIcSt11char_traitsIcESaIcEEESaIS5_EE9push_backERKS5_.exit

14:                                               ; preds = %6
  %15 = getelementptr inbounds i8, ptr %0, i64 8
  tail call void @_ZNSt6vectorINSt7__cxx1112basic_stringIcSt11char_traitsIcESaIcEEESaIS5_EE17_M_realloc_insertIJRKS5_EEEvN9__gnu_cxx17__normal_iteratorIPS5_S7_EEDpOT_(ptr noundef nonnull align 8 dereferenceable(24) %15, ptr %8, ptr noundef nonnull align 8 dereferenceable(32) %1)
  br label %_ZNSt6vectorINSt7__cxx1112basic_stringIcSt11char_traitsIcESaIcEEESaIS5_EE9push_backERKS5_.exit

16:                                               ; preds = %2
  %17 = getelementptr inbounds i8, ptr %0, i64 32
  %18 = tail call noundef nonnull align 8 dereferenceable(32) ptr @_ZNSt7__cxx1112basic_stringIcSt11char_traitsIcESaIcEEpLERKS4_(ptr noundef nonnull align 8 dereferenceable(32) %17, ptr noundef nonnull align 8 dereferenceable(32) %1)
  br label %_ZNSt6vectorINSt7__cxx1112basic_stringIcSt11char_traitsIcESaIcEEESaIS5_EE9push_backERKS5_.exit

_ZNSt6vectorINSt7__cxx1112basic_stringIcSt11char_traitsIcESaIcEEESaIS5_EE9push_backERKS5_.exit: ; preds = %14, %11, %16
  ret void
}